(dp0
(I5
I9
tp1
F0.06119900613621046
s(I4
I7
tp2
F0.058520573598065284
s(I1
I3
tp3
F0.054717565516458275
s(I4
I8
tp4
F0.057928444636349226
s(I5
I6
tp5
F0.060302268915552716
s(I2
I8
tp6
F0.058823529411764705
s(I6
I9
tp7
F0.07001400420140048
s(I8
I9
tp8
F0.06757373783994859
s(I6
I10
tp9
F0.07216878364870323
s(I1
I6
tp10
F0.06108472217815261
s(I3
I7
tp11
F0.0574484989621426
s(I2
I5
tp12
F0.06311944030978031
s(I5
I8
tp13
F0.05976143046671968
s(I1
I2
tp14
F0.05643326479831003
s(I4
I9
tp15
F0.05923488777590923
s(I3
I3
tp16
I2147483647
s(I2
I9
tp17
F0.0601929265428846
s(I3
I10
tp18
F0.0575435337648436
s(I4
I4
tp19
I2147483647
s(I8
I10
tp20
F0.07312724241271307
s(I1
I5
tp21
F0.05725983343138682
s(I3
I6
tp22
F0.057353933467640436
s(I2
I2
tp23
I2147483647
s(I1
I10
tp24
F0.062017367294604234
s(I7
I9
tp25
F0.07692307692307693
s(I1
I1
tp26
I2147483647
s(I4
I10
tp27
F0.05862103817605492
s(I2
I6
tp28
F0.05933908290969266
s(I6
I6
tp29
I2147483647
s(I7
I10
tp30
F0.06851887098275317
s(I4
I5
tp31
F0.06274558051381586
s(I5
I5
tp32
I2147483647
s(I1
I4
tp33
F0.055641488407465724
s(I2
I10
tp34
F0.05954913341754137
s(I9
I10
tp35
F0.06741998624632421
s(I3
I9
tp36
F0.05812381937190964
s(I2
I3
tp37
F0.06509445549041194
s(I1
I9
tp38
F0.062017367294604234
s(I6
I8
tp39
F0.0716114874039433
s(I6
I7
tp40
F0.06523280730534423
s(I7
I7
tp41
I2147483647
s(I3
I5
tp42
F0.06286946134619315
s(I2
I7
tp43
F0.0594438298277764
s(I5
I10
tp44
F0.060522753266880246
s(I4
I6
tp45
F0.0584206237836986
s(I10
I10
tp46
I2147483647
s(I7
I8
tp47
F0.06537204504606134
s(I5
I7
tp48
F0.0604122093330177
s(I9
I9
tp49
I2147483647
s(I3
I8
tp50
F0.05688801239885743
s(I1
I8
tp51
F0.0607456739230787
s(I8
I8
tp52
I2147483647
s(I1
I7
tp53
F0.06119900613621046
s(I3
I4
tp54
F0.062136976600120006
s(I2
I4
tp55
F0.06286946134619315
s.